target datalayout = "e-m:e-p270:32:32-p271:32:32-p272:64:64-i64:64-i128:128-f80:128-n8:16:32:64-S128"
target triple = "x86_64-unknown-linux-gnu"

%"class.proxygen::huffman::HuffTree" = type { i32, ptr, ptr, [46 x %"struct.proxygen::huffman::SuperHuffNode"] }
%"struct.proxygen::huffman::SuperHuffNode" = type { [256 x %"struct.proxygen::huffman::HuffNode"] }
%"struct.proxygen::huffman::HuffNode" = type { %union.anon, %struct.anon }
%union.anon = type { i8 }
%struct.anon = type { i8 }
%"struct.std::pair.1" = type <{ i32, i8, [3 x i8] }>

; Function Attrs: mustprogress nounwind uwtable
define linkonce_odr void @_ZNSt4pairIjhEC2IjhTnNSt9enable_ifIXaaclsr5_PCCPE18_ConstructiblePairIT_T0_EEclsr5_PCCPE26_ImplicitlyConvertiblePairIS3_S4_EEEbE4typeELb1EEERKjRKh(ptr noundef nonnull align 4 dereferenceable(5) %this, ptr noundef nonnull align 4 dereferenceable(4) %__a, ptr noundef nonnull align 1 dereferenceable(1) %__b) unnamed_addr #1 comdat align 2 {
entry:
  %this.addr = alloca ptr, align 8
  %__a.addr = alloca ptr, align 8
  %__b.addr = alloca ptr, align 8
  store ptr %this, ptr %this.addr, align 8
  store ptr %__a, ptr %__a.addr, align 8
  store ptr %__b, ptr %__b.addr, align 8
  %this1 = load ptr, ptr %this.addr, align 8
  %first = getelementptr inbounds %"struct.std::pair.1", ptr %this1, i32 0, i32 0
  %0 = load ptr, ptr %__a.addr, align 8
  %1 = load i32, ptr %0, align 4
  store i32 %1, ptr %first, align 4
  %second = getelementptr inbounds %"struct.std::pair.1", ptr %this1, i32 0, i32 1
  %2 = load ptr, ptr %__b.addr, align 8
  %3 = load i8, ptr %2, align 1
  store i8 %3, ptr %second, align 4
  ret void
}

; Function Attrs: mustprogress uwtable
define linkonce_odr i64 @_ZSt9make_pairIRKjRKhESt4pairINSt25__strip_reference_wrapperINSt5decayIT_E4typeEE6__typeENS5_INS6_IT0_E4typeEE6__typeEEOS7_OSC_(ptr noundef nonnull align 4 dereferenceable(4) %__x, ptr noundef nonnull align 1 dereferenceable(1) %__y) #0 comdat {
entry:
  %retval = alloca %"struct.std::pair.1", align 4
  %__x.addr = alloca ptr, align 8
  %__y.addr = alloca ptr, align 8
  store ptr %__x, ptr %__x.addr, align 8
  store ptr %__y, ptr %__y.addr, align 8
  %0 = load ptr, ptr %__x.addr, align 8
  %1 = load ptr, ptr %__y.addr, align 8
  call void @_ZNSt4pairIjhEC2IjhTnNSt9enable_ifIXaaclsr5_PCCPE18_ConstructiblePairIT_T0_EEclsr5_PCCPE26_ImplicitlyConvertiblePairIS3_S4_EEEbE4typeELb1EEERKjRKh(ptr noundef nonnull align 4 dereferenceable(5) %retval, ptr noundef nonnull align 4 dereferenceable(4) %0, ptr noundef nonnull align 1 dereferenceable(1) %1)
  %2 = load i64, ptr %retval, align 4
  ret i64 %2
}

; Function Attrs: mustprogress uwtable
define i64 @_ZNK8proxygen7huffman8HuffTree7getCodeEh(ptr noundef nonnull align 8 dereferenceable(23576) %this, i8 noundef zeroext %ch) #0 align 2 {
entry:
  %retval = alloca %"struct.std::pair.1", align 4
  %this.addr = alloca ptr, align 8
  %ch.addr = alloca i8, align 1
  store ptr %this, ptr %this.addr, align 8
  store i8 %ch, ptr %ch.addr, align 1
  %this1 = load ptr, ptr %this.addr, align 8
  %codes_ = getelementptr inbounds %"class.proxygen::huffman::HuffTree", ptr %this1, i32 0, i32 1
  %0 = load ptr, ptr %codes_, align 8
  %1 = load i8, ptr %ch.addr, align 1
  %idxprom = zext i8 %1 to i64
  %arrayidx = getelementptr inbounds i32, ptr %0, i64 %idxprom
  %bits_ = getelementptr inbounds %"class.proxygen::huffman::HuffTree", ptr %this1, i32 0, i32 2
  %2 = load ptr, ptr %bits_, align 8
  %3 = load i8, ptr %ch.addr, align 1
  %idxprom2 = zext i8 %3 to i64
  %arrayidx3 = getelementptr inbounds i8, ptr %2, i64 %idxprom2
  %call = call i64 @_ZSt9make_pairIRKjRKhESt4pairINSt25__strip_reference_wrapperINSt5decayIT_E4typeEE6__typeENS5_INS6_IT0_E4typeEE6__typeEEOS7_OSC_(ptr noundef nonnull align 4 dereferenceable(4) %arrayidx, ptr noundef nonnull align 1 dereferenceable(1) %arrayidx3)
  store i64 %call, ptr %retval, align 4
  %4 = load i64, ptr %retval, align 4
  ret i64 %4
}