; Function Attrs: mustprogress nofree norecurse nosync nounwind willreturn memory(read, inaccessiblemem: none) uwtable
define i64 @_ZNK8proxygen7huffman8HuffTree7getCodeEh(ptr nocapture noundef nonnull readonly align 8 dereferenceable(23576) %this, i8 noundef zeroext %ch) local_unnamed_addr #5 align 2 {
entry:
  %codes_ = getelementptr inbounds i8, ptr %this, i64 8
  %0 = load ptr, ptr %codes_, align 8
  %idxprom = zext i8 %ch to i64
  %arrayidx = getelementptr inbounds i32, ptr %0, i64 %idxprom
  %bits_ = getelementptr inbounds i8, ptr %this, i64 16
  %1 = load ptr, ptr %bits_, align 8
  %arrayidx3 = getelementptr inbounds i8, ptr %1, i64 %idxprom
  %2 = load i32, ptr %arrayidx, align 4
  %3 = load i8, ptr %arrayidx3, align 1
  %retval.sroa.2.0.insert.ext.i = zext i8 %3 to i64
  %retval.sroa.2.0.insert.shift.i = shl nuw nsw i64 %retval.sroa.2.0.insert.ext.i, 32
  %retval.sroa.0.0.insert.ext.i = zext i32 %2 to i64
  %retval.sroa.0.0.insert.insert.i = or disjoint i64 %retval.sroa.2.0.insert.shift.i, %retval.sroa.0.0.insert.ext.i
  ret i64 %retval.sroa.0.0.insert.insert.i
}